target datalayout = "e-m:e-p270:32:32-p271:32:32-p272:64:64-i64:64-i128:128-f80:128-n8:16:32:64-S128"
target triple = "x86_64-unknown-linux-gnu"

%"class.icu_75::RuleBasedBreakIterator" = type <{ %"class.icu_75::BreakIterator.base", i8, %struct.UText, ptr, i32, i32, i32, [4 x i8], ptr, ptr, ptr, ptr, i32, [4 x i8], ptr, %"class.icu_75::UCharCharacterIterator", i8, [7 x i8], ptr, i8, [7 x i8] }>
%"class.icu_75::BreakIterator.base" = type <{ %"class.icu_75::UObject", [157 x i8], [157 x i8], [157 x i8] }>
%"class.icu_75::UObject" = type { ptr }
%struct.UText = type { i32, i32, i32, i32, i64, i32, i32, i64, i32, i32, ptr, ptr, ptr, ptr, ptr, ptr, ptr, ptr, i64, i32, i32, i64, i32, i32 }
%"class.icu_75::UCharCharacterIterator" = type { %"class.icu_75::CharacterIterator", ptr }
%"class.icu_75::CharacterIterator" = type { %"class.icu_75::ForwardCharacterIterator", i32, i32, i32, i32 }
%"class.icu_75::ForwardCharacterIterator" = type { %"class.icu_75::UObject" }

; Function Attrs: mustprogress nounwind uwtable
define void @_ZN6icu_7522RuleBasedBreakIteratorD2Ev(ptr noundef nonnull align 8 dereferenceable(745) %this) unnamed_addr #0 align 2 personality ptr @__gxx_personality_v0 {
entry:
  %this.addr = alloca ptr, align 8
  store ptr %this, ptr %this.addr, align 8
  %this1 = load ptr, ptr %this.addr, align 8
  store ptr getelementptr inbounds ({ [28 x ptr] }, ptr @_ZTVN6icu_7522RuleBasedBreakIteratorE, i32 0, i32 0, i32 2), ptr %this1, align 8
  %fCharIter = getelementptr inbounds %"class.icu_75::RuleBasedBreakIterator", ptr %this1, i32 0, i32 14
  %0 = load ptr, ptr %fCharIter, align 8
  %fSCharIter = getelementptr inbounds %"class.icu_75::RuleBasedBreakIterator", ptr %this1, i32 0, i32 15
  %cmp = icmp ne ptr %0, %fSCharIter
  br i1 %cmp, label %if.then, label %if.end

if.then:                                          ; preds = %entry
  %fCharIter2 = getelementptr inbounds %"class.icu_75::RuleBasedBreakIterator", ptr %this1, i32 0, i32 14
  %1 = load ptr, ptr %fCharIter2, align 8
  %isnull = icmp eq ptr %1, null
  br i1 %isnull, label %delete.end, label %delete.notnull

delete.notnull:                                   ; preds = %if.then
  %vtable = load ptr, ptr %1, align 8
  %vfn = getelementptr inbounds ptr, ptr %vtable, i64 1
  %2 = load ptr, ptr %vfn, align 8
  call void %2(ptr noundef nonnull align 8 dereferenceable(24) %1) #6
  br label %delete.end

delete.end:                                       ; preds = %delete.notnull, %if.then
  br label %if.end

if.end:                                           ; preds = %delete.end, %entry
  %fCharIter3 = getelementptr inbounds %"class.icu_75::RuleBasedBreakIterator", ptr %this1, i32 0, i32 14
  store ptr null, ptr %fCharIter3, align 8
  %fText = getelementptr inbounds %"class.icu_75::RuleBasedBreakIterator", ptr %this1, i32 0, i32 2
  %call = invoke ptr @utext_close_75(ptr noundef %fText)
          to label %invoke.cont unwind label %terminate.lpad

invoke.cont:                                      ; preds = %if.end
  %fData = getelementptr inbounds %"class.icu_75::RuleBasedBreakIterator", ptr %this1, i32 0, i32 3
  %3 = load ptr, ptr %fData, align 8
  %cmp4 = icmp ne ptr %3, null
  br i1 %cmp4, label %if.then5, label %if.end9

if.then5:                                         ; preds = %invoke.cont
  %fData6 = getelementptr inbounds %"class.icu_75::RuleBasedBreakIterator", ptr %this1, i32 0, i32 3
  %4 = load ptr, ptr %fData6, align 8
  invoke void @_ZN6icu_7515RBBIDataWrapper15removeReferenceEv(ptr noundef nonnull align 8 dereferenceable(137) %4)
          to label %invoke.cont7 unwind label %terminate.lpad

invoke.cont7:                                     ; preds = %if.then5
  %fData8 = getelementptr inbounds %"class.icu_75::RuleBasedBreakIterator", ptr %this1, i32 0, i32 3
  store ptr null, ptr %fData8, align 8
  br label %if.end9

if.end9:                                          ; preds = %invoke.cont7, %invoke.cont
  %fBreakCache = getelementptr inbounds %"class.icu_75::RuleBasedBreakIterator", ptr %this1, i32 0, i32 8
  %5 = load ptr, ptr %fBreakCache, align 8
  %isnull10 = icmp eq ptr %5, null
  br i1 %isnull10, label %delete.end14, label %delete.notnull11

delete.notnull11:                                 ; preds = %if.end9
  %vtable12 = load ptr, ptr %5, align 8
  %vfn13 = getelementptr inbounds ptr, ptr %vtable12, i64 1
  %6 = load ptr, ptr %vfn13, align 8
  call void %6(ptr noundef nonnull align 8 dereferenceable(832) %5) #6
  br label %delete.end14

delete.end14:                                     ; preds = %delete.notnull11, %if.end9
  %fBreakCache15 = getelementptr inbounds %"class.icu_75::RuleBasedBreakIterator", ptr %this1, i32 0, i32 8
  store ptr null, ptr %fBreakCache15, align 8
  %fDictionaryCache = getelementptr inbounds %"class.icu_75::RuleBasedBreakIterator", ptr %this1, i32 0, i32 9
  %7 = load ptr, ptr %fDictionaryCache, align 8
  %isnull16 = icmp eq ptr %7, null
  br i1 %isnull16, label %delete.end18, label %delete.notnull17

delete.notnull17:                                 ; preds = %delete.end14
  call void @_ZN6icu_7522RuleBasedBreakIterator15DictionaryCacheD1Ev(ptr noundef nonnull align 8 dereferenceable(60) %7) #6
  call void @_ZN6icu_757UMemorydlEPv(ptr noundef %7) #6
  br label %delete.end18

delete.end18:                                     ; preds = %delete.notnull17, %delete.end14
  %fDictionaryCache19 = getelementptr inbounds %"class.icu_75::RuleBasedBreakIterator", ptr %this1, i32 0, i32 9
  store ptr null, ptr %fDictionaryCache19, align 8
  %fLanguageBreakEngines = getelementptr inbounds %"class.icu_75::RuleBasedBreakIterator", ptr %this1, i32 0, i32 10
  %8 = load ptr, ptr %fLanguageBreakEngines, align 8
  %isnull20 = icmp eq ptr %8, null
  br i1 %isnull20, label %delete.end24, label %delete.notnull21

delete.notnull21:                                 ; preds = %delete.end18
  %vtable22 = load ptr, ptr %8, align 8
  %vfn23 = getelementptr inbounds ptr, ptr %vtable22, i64 1
  %9 = load ptr, ptr %vfn23, align 8
  call void %9(ptr noundef nonnull align 8 dereferenceable(40) %8) #6
  br label %delete.end24

delete.end24:                                     ; preds = %delete.notnull21, %delete.end18
  %fLanguageBreakEngines25 = getelementptr inbounds %"class.icu_75::RuleBasedBreakIterator", ptr %this1, i32 0, i32 10
  store ptr null, ptr %fLanguageBreakEngines25, align 8
  %fUnhandledBreakEngine = getelementptr inbounds %"class.icu_75::RuleBasedBreakIterator", ptr %this1, i32 0, i32 11
  %10 = load ptr, ptr %fUnhandledBreakEngine, align 8
  %isnull26 = icmp eq ptr %10, null
  br i1 %isnull26, label %delete.end30, label %delete.notnull27

delete.notnull27:                                 ; preds = %delete.end24
  %vtable28 = load ptr, ptr %10, align 8
  %vfn29 = getelementptr inbounds ptr, ptr %vtable28, i64 1
  %11 = load ptr, ptr %vfn29, align 8
  call void %11(ptr noundef nonnull align 8 dereferenceable(16) %10) #6
  br label %delete.end30

delete.end30:                                     ; preds = %delete.notnull27, %delete.end24
  %fUnhandledBreakEngine31 = getelementptr inbounds %"class.icu_75::RuleBasedBreakIterator", ptr %this1, i32 0, i32 11
  store ptr null, ptr %fUnhandledBreakEngine31, align 8
  %fLookAheadMatches = getelementptr inbounds %"class.icu_75::RuleBasedBreakIterator", ptr %this1, i32 0, i32 18
  %12 = load ptr, ptr %fLookAheadMatches, align 8
  invoke void @uprv_free_75(ptr noundef %12)
          to label %invoke.cont32 unwind label %terminate.lpad

invoke.cont32:                                    ; preds = %delete.end30
  %fLookAheadMatches33 = getelementptr inbounds %"class.icu_75::RuleBasedBreakIterator", ptr %this1, i32 0, i32 18
  store ptr null, ptr %fLookAheadMatches33, align 8
  %fSCharIter34 = getelementptr inbounds %"class.icu_75::RuleBasedBreakIterator", ptr %this1, i32 0, i32 15
  call void @_ZN6icu_7522UCharCharacterIteratorD1Ev(ptr noundef nonnull align 8 dereferenceable(32) %fSCharIter34) #6
  call void @_ZN6icu_7513BreakIteratorD2Ev(ptr noundef nonnull align 8 dereferenceable(479) %this1) #6
  ret void

terminate.lpad:                                   ; preds = %delete.end30, %if.then5, %if.end
  %13 = landingpad { ptr, i32 }
          catch ptr null
  %14 = extractvalue { ptr, i32 } %13, 0
  call void @__clang_call_terminate(ptr %14) #8
  unreachable
}