; Function Attrs: mustprogress nounwind uwtable
define void @_ZN6icu_7522RuleBasedBreakIteratorD2Ev(ptr noundef nonnull align 8 dereferenceable(745) %this) unnamed_addr #5 align 2 personality ptr @__gxx_personality_v0 {
entry:
  store ptr getelementptr inbounds ({ [28 x ptr] }, ptr @_ZTVN6icu_7522RuleBasedBreakIteratorE, i64 0, i32 0, i64 2), ptr %this, align 8
  %fCharIter = getelementptr inbounds i8, ptr %this, i64 688
  %0 = load ptr, ptr %fCharIter, align 8
  %fSCharIter = getelementptr inbounds i8, ptr %this, i64 696
  %cmp.not = icmp eq ptr %0, %fSCharIter
  %isnull = icmp eq ptr %0, null
  %or.cond = or i1 %cmp.not, %isnull
  br i1 %or.cond, label %if.end, label %delete.notnull

delete.notnull:                                   ; preds = %entry
  %vtable = load ptr, ptr %0, align 8
  %vfn = getelementptr inbounds i8, ptr %vtable, i64 8
  %1 = load ptr, ptr %vfn, align 8
  tail call void %1(ptr noundef nonnull align 8 dereferenceable(24) %0) #15
  br label %if.end

if.end:                                           ; preds = %delete.notnull, %entry
  store ptr null, ptr %fCharIter, align 8
  %fText = getelementptr inbounds i8, ptr %this, i64 480
  %call = invoke ptr @utext_close_75(ptr noundef nonnull %fText)
          to label %invoke.cont unwind label %terminate.lpad

invoke.cont:                                      ; preds = %if.end
  %fData = getelementptr inbounds i8, ptr %this, i64 624
  %2 = load ptr, ptr %fData, align 8
  %cmp4.not = icmp eq ptr %2, null
  br i1 %cmp4.not, label %if.end9, label %if.then5

if.then5:                                         ; preds = %invoke.cont
  invoke void @_ZN6icu_7515RBBIDataWrapper15removeReferenceEv(ptr noundef nonnull align 8 dereferenceable(137) %2)
          to label %invoke.cont7 unwind label %terminate.lpad

invoke.cont7:                                     ; preds = %if.then5
  store ptr null, ptr %fData, align 8
  br label %if.end9

if.end9:                                          ; preds = %invoke.cont7, %invoke.cont
  %fBreakCache = getelementptr inbounds i8, ptr %this, i64 648
  %3 = load ptr, ptr %fBreakCache, align 8
  %isnull10 = icmp eq ptr %3, null
  br i1 %isnull10, label %delete.end14, label %delete.notnull11

delete.notnull11:                                 ; preds = %if.end9
  %vtable12 = load ptr, ptr %3, align 8
  %vfn13 = getelementptr inbounds i8, ptr %vtable12, i64 8
  %4 = load ptr, ptr %vfn13, align 8
  tail call void %4(ptr noundef nonnull align 8 dereferenceable(832) %3) #15
  br label %delete.end14

delete.end14:                                     ; preds = %delete.notnull11, %if.end9
  store ptr null, ptr %fBreakCache, align 8
  %fDictionaryCache = getelementptr inbounds i8, ptr %this, i64 656
  %5 = load ptr, ptr %fDictionaryCache, align 8
  %isnull16 = icmp eq ptr %5, null
  br i1 %isnull16, label %delete.end18, label %delete.notnull17

delete.notnull17:                                 ; preds = %delete.end14
  tail call void @_ZN6icu_7522RuleBasedBreakIterator15DictionaryCacheD1Ev(ptr noundef nonnull align 8 dereferenceable(60) %5) #15
  tail call void @_ZN6icu_757UMemorydlEPv(ptr noundef nonnull %5) #15
  br label %delete.end18

delete.end18:                                     ; preds = %delete.notnull17, %delete.end14
  store ptr null, ptr %fDictionaryCache, align 8
  %fLanguageBreakEngines = getelementptr inbounds i8, ptr %this, i64 664
  %6 = load ptr, ptr %fLanguageBreakEngines, align 8
  %isnull20 = icmp eq ptr %6, null
  br i1 %isnull20, label %delete.end24, label %delete.notnull21

delete.notnull21:                                 ; preds = %delete.end18
  %vtable22 = load ptr, ptr %6, align 8
  %vfn23 = getelementptr inbounds i8, ptr %vtable22, i64 8
  %7 = load ptr, ptr %vfn23, align 8
  tail call void %7(ptr noundef nonnull align 8 dereferenceable(40) %6) #15
  br label %delete.end24

delete.end24:                                     ; preds = %delete.notnull21, %delete.end18
  store ptr null, ptr %fLanguageBreakEngines, align 8
  %fUnhandledBreakEngine = getelementptr inbounds i8, ptr %this, i64 672
  %8 = load ptr, ptr %fUnhandledBreakEngine, align 8
  %isnull26 = icmp eq ptr %8, null
  br i1 %isnull26, label %delete.end30, label %delete.notnull27

delete.notnull27:                                 ; preds = %delete.end24
  %vtable28 = load ptr, ptr %8, align 8
  %vfn29 = getelementptr inbounds i8, ptr %vtable28, i64 8
  %9 = load ptr, ptr %vfn29, align 8
  tail call void %9(ptr noundef nonnull align 8 dereferenceable(16) %8) #15
  br label %delete.end30

delete.end30:                                     ; preds = %delete.notnull27, %delete.end24
  store ptr null, ptr %fUnhandledBreakEngine, align 8
  %fLookAheadMatches = getelementptr inbounds i8, ptr %this, i64 736
  %10 = load ptr, ptr %fLookAheadMatches, align 8
  invoke void @uprv_free_75(ptr noundef %10)
          to label %invoke.cont32 unwind label %terminate.lpad

invoke.cont32:                                    ; preds = %delete.end30
  store ptr null, ptr %fLookAheadMatches, align 8
  tail call void @_ZN6icu_7522UCharCharacterIteratorD1Ev(ptr noundef nonnull align 8 dereferenceable(32) %fSCharIter) #15
  tail call void @_ZN6icu_7513BreakIteratorD2Ev(ptr noundef nonnull align 8 dereferenceable(479) %this) #15
  ret void

terminate.lpad:                                   ; preds = %delete.end30, %if.then5, %if.end
  %11 = landingpad { ptr, i32 }
          catch ptr null
  %12 = extractvalue { ptr, i32 } %11, 0
  tail call void @__clang_call_terminate(ptr %12) #17
  unreachable
}